target datalayout = "e-m:e-p270:32:32-p271:32:32-p272:64:64-i64:64-i128:128-f80:128-n8:16:32:64-S128"
target triple = "x86_64-pc-linux-gnu"

; Function Attrs: mustprogress uwtable
define dso_local noundef i32 @_ZN13Probabilities22get_random_single_probEi(i32 noundef %0) #4 align 2 {
  %2 = alloca i32, align 4
  %3 = alloca i32, align 4
  store i32 %0, ptr %3, align 4
  %4 = load i32, ptr %3, align 4
  %5 = icmp eq i32 %4, 0
  br i1 %5, label %6, label %8

6:                                                ; preds = %1
  %7 = load i32, ptr %3, align 4
  store i32 %7, ptr %2, align 4
  br label %10

8:                                                ; preds = %1
  %9 = call noundef i32 @_Z8rnd_uptojPK6FilterPKNSt7__cxx1112basic_stringIcSt11char_traitsIcESaIcEEE(i32 noundef 101, ptr noundef null, ptr noundef null)
  store i32 %9, ptr %2, align 4
  br label %10

10:                                               ; preds = %8, %6
  %11 = load i32, ptr %2, align 4
  ret i32 %11
}