; Function Attrs: mustprogress uwtable
define dso_local noundef i32 @_ZN13Probabilities22get_random_single_probEi(i32 noundef %0) local_unnamed_addr #3 align 2 {
  %2 = icmp eq i32 %0, 0
  br i1 %2, label %5, label %3

3:                                                ; preds = %1
  %4 = tail call noundef i32 @_Z8rnd_uptojPK6FilterPKNSt7__cxx1112basic_stringIcSt11char_traitsIcESaIcEEE(i32 noundef 101, ptr noundef null, ptr noundef null)
  br label %5

5:                                                ; preds = %1, %3
  %.0 = phi i32 [ %4, %3 ], [ 0, %1 ]
  ret i32 %.0
}